target datalayout = "e-m:e-p270:32:32-p271:32:32-p272:64:64-i64:64-i128:128-f80:128-n8:16:32:64-S128"
target triple = "x86_64-pc-linux-gnu"

%struct.ossl_ml_kem_key_st = type { ptr, ptr, ptr, ptr, ptr, ptr, ptr, ptr, ptr, ptr, ptr, ptr, ptr, i32, i32, [64 x i8], ptr }
%struct.ML_KEM_VINFO = type { ptr, i64, i64, i64, i64, i64, i64, i64, i32, i32, i32, i32, i32, i32 }

@.str.9 = private unnamed_addr constant [60 x i8] c"../openssl/providers/implementations/keymgmt/ml_kem_kmgmt.c\00", align 1
@__func__.ml_kem_load = private unnamed_addr constant [12 x i8] c"ml_kem_load\00", align 1
@.str.13 = private unnamed_addr constant [61 x i8] c"private %s key implicit rejection secret does not match seed\00", align 1
@.str.14 = private unnamed_addr constant [29 x i8] c"error parsing %s private key\00", align 1

; Function Attrs: nounwind uwtable
define internal ptr @ml_kem_load(ptr noundef %0, i64 noundef %1) #0 {
  %3 = alloca ptr, align 8
  %4 = alloca ptr, align 8
  %5 = alloca i64, align 8
  %6 = alloca ptr, align 8
  %7 = alloca ptr, align 8
  %8 = alloca [64 x i8], align 16
  %9 = alloca i64, align 8
  %10 = alloca i32, align 4
  store ptr %0, ptr %4, align 8, !tbaa !3
  store i64 %1, ptr %5, align 8, !tbaa !37
  call void @llvm.lifetime.start.p0(i64 8, ptr %6) #7
  store ptr null, ptr %6, align 8, !tbaa !9
  call void @llvm.lifetime.start.p0(i64 8, ptr %7) #7
  call void @llvm.lifetime.start.p0(i64 64, ptr %8) #7
  call void @llvm.lifetime.start.p0(i64 8, ptr %9) #7
  store i64 32, ptr %9, align 8, !tbaa !37
  %11 = call i32 @ossl_prov_is_running()
  %12 = icmp ne i32 %11, 0
  br i1 %12, label %13, label %105

13:                                               ; preds = %2
  %14 = load i64, ptr %5, align 8, !tbaa !37
  %15 = icmp eq i64 %14, 8
  br i1 %15, label %16, label %105

16:                                               ; preds = %13
  %17 = load ptr, ptr %4, align 8, !tbaa !3
  %18 = load ptr, ptr %17, align 8, !tbaa !9
  store ptr %18, ptr %6, align 8, !tbaa !9
  %19 = load ptr, ptr %6, align 8, !tbaa !9
  %20 = getelementptr inbounds nuw %struct.ossl_ml_kem_key_st, ptr %19, i32 0, i32 16
  %21 = load ptr, ptr %20, align 8, !tbaa !47
  store ptr %21, ptr %7, align 8, !tbaa !24
  %22 = load ptr, ptr %6, align 8, !tbaa !9
  %23 = getelementptr inbounds nuw %struct.ossl_ml_kem_key_st, ptr %22, i32 0, i32 16
  store ptr null, ptr %23, align 8, !tbaa !47
  %24 = load ptr, ptr %4, align 8, !tbaa !3
  store ptr null, ptr %24, align 8, !tbaa !9
  %25 = load ptr, ptr %7, align 8, !tbaa !24
  %26 = icmp ne ptr %25, null
  br i1 %26, label %27, label %57

27:                                               ; preds = %16
  %28 = getelementptr inbounds [64 x i8], ptr %8, i64 0, i64 0
  %29 = load ptr, ptr %6, align 8, !tbaa !9
  %30 = call i32 @ossl_ml_kem_encode_seed(ptr noundef %28, i64 noundef 64, ptr noundef %29)
  %31 = icmp ne i32 %30, 0
  br i1 %31, label %32, label %57

32:                                               ; preds = %27
  %33 = getelementptr inbounds [64 x i8], ptr %8, i64 0, i64 0
  %34 = getelementptr inbounds nuw i8, ptr %33, i64 64
  %35 = load i64, ptr %9, align 8, !tbaa !37
  %36 = sub i64 0, %35
  %37 = getelementptr inbounds i8, ptr %34, i64 %36
  %38 = load ptr, ptr %7, align 8, !tbaa !24
  %39 = load ptr, ptr %6, align 8, !tbaa !9
  %40 = getelementptr inbounds nuw %struct.ossl_ml_kem_key_st, ptr %39, i32 0, i32 0
  %41 = load ptr, ptr %40, align 8, !tbaa !11
  %42 = getelementptr inbounds nuw %struct.ML_KEM_VINFO, ptr %41, i32 0, i32 1
  %43 = load i64, ptr %42, align 8, !tbaa !35
  %44 = getelementptr inbounds nuw i8, ptr %38, i64 %43
  %45 = load i64, ptr %9, align 8, !tbaa !37
  %46 = sub i64 0, %45
  %47 = getelementptr inbounds i8, ptr %44, i64 %46
  %48 = load i64, ptr %9, align 8, !tbaa !37
  %49 = call i32 @memcmp(ptr noundef %37, ptr noundef %47, i64 noundef %48) #8
  %50 = icmp ne i32 %49, 0
  br i1 %50, label %51, label %57

51:                                               ; preds = %32
  call void @ERR_new()
  call void @ERR_set_debug(ptr noundef @.str.9, i32 noundef 461, ptr noundef @__func__.ml_kem_load)
  %52 = load ptr, ptr %6, align 8, !tbaa !9
  %53 = getelementptr inbounds nuw %struct.ossl_ml_kem_key_st, ptr %52, i32 0, i32 0
  %54 = load ptr, ptr %53, align 8, !tbaa !11
  %55 = getelementptr inbounds nuw %struct.ML_KEM_VINFO, ptr %54, i32 0, i32 0
  %56 = load ptr, ptr %55, align 8, !tbaa !48
  call void (i32, i32, ptr, ...) @ERR_set_error(i32 noundef 57, i32 noundef 158, ptr noundef @.str.13, ptr noundef %56)
  br label %106

57:                                               ; preds = %32, %27, %16
  %58 = load ptr, ptr %6, align 8, !tbaa !9
  %59 = getelementptr inbounds nuw %struct.ossl_ml_kem_key_st, ptr %58, i32 0, i32 12
  %60 = load ptr, ptr %59, align 8, !tbaa !36
  %61 = icmp ne ptr %60, null
  br i1 %61, label %62, label %76

62:                                               ; preds = %57
  %63 = load ptr, ptr %7, align 8, !tbaa !24
  %64 = icmp eq ptr %63, null
  br i1 %64, label %70, label %65

65:                                               ; preds = %62
  %66 = load ptr, ptr %6, align 8, !tbaa !9
  %67 = getelementptr inbounds nuw %struct.ossl_ml_kem_key_st, ptr %66, i32 0, i32 13
  %68 = load i32, ptr %67, align 8, !tbaa !49
  %69 = icmp ne i32 %68, 0
  br i1 %69, label %70, label %76

70:                                               ; preds = %65, %62
  %71 = load ptr, ptr %6, align 8, !tbaa !9
  %72 = call i32 @ossl_ml_kem_genkey(ptr noundef null, i64 noundef 0, ptr noundef %71)
  %73 = icmp ne i32 %72, 0
  br i1 %73, label %75, label %74

74:                                               ; preds = %70
  br label %106

75:                                               ; preds = %70
  br label %102

76:                                               ; preds = %65, %57
  %77 = load ptr, ptr %7, align 8, !tbaa !24
  %78 = icmp ne ptr %77, null
  br i1 %78, label %79, label %101

79:                                               ; preds = %76
  %80 = load ptr, ptr %7, align 8, !tbaa !24
  %81 = load ptr, ptr %6, align 8, !tbaa !9
  %82 = getelementptr inbounds nuw %struct.ossl_ml_kem_key_st, ptr %81, i32 0, i32 0
  %83 = load ptr, ptr %82, align 8, !tbaa !11
  %84 = getelementptr inbounds nuw %struct.ML_KEM_VINFO, ptr %83, i32 0, i32 1
  %85 = load i64, ptr %84, align 8, !tbaa !35
  %86 = load ptr, ptr %6, align 8, !tbaa !9
  %87 = call i32 @ossl_ml_kem_parse_private_key(ptr noundef %80, i64 noundef %85, ptr noundef %86)
  %88 = icmp ne i32 %87, 0
  br i1 %88, label %95, label %89

89:                                               ; preds = %79
  call void @ERR_new()
  call void @ERR_set_debug(ptr noundef @.str.9, i32 noundef 474, ptr noundef @__func__.ml_kem_load)
  %90 = load ptr, ptr %6, align 8, !tbaa !9
  %91 = getelementptr inbounds nuw %struct.ossl_ml_kem_key_st, ptr %90, i32 0, i32 0
  %92 = load ptr, ptr %91, align 8, !tbaa !11
  %93 = getelementptr inbounds nuw %struct.ML_KEM_VINFO, ptr %92, i32 0, i32 0
  %94 = load ptr, ptr %93, align 8, !tbaa !48
  call void (i32, i32, ptr, ...) @ERR_set_error(i32 noundef 57, i32 noundef 158, ptr noundef @.str.14, ptr noundef %94)
  br label %106

95:                                               ; preds = %79
  %96 = load ptr, ptr %6, align 8, !tbaa !9
  %97 = call i32 @ml_kem_pairwise_test(ptr noundef %96)
  %98 = icmp ne i32 %97, 0
  br i1 %98, label %100, label %99

99:                                               ; preds = %95
  br label %106

100:                                              ; preds = %95
  br label %101

101:                                              ; preds = %100, %76
  br label %102

102:                                              ; preds = %101, %75
  %103 = load ptr, ptr %7, align 8, !tbaa !24
  call void @CRYPTO_free(ptr noundef %103, ptr noundef @.str.9, i32 noundef 482)
  %104 = load ptr, ptr %6, align 8, !tbaa !9
  store ptr %104, ptr %3, align 8
  store i32 1, ptr %10, align 4
  br label %108

105:                                              ; preds = %13, %2
  br label %106

106:                                              ; preds = %105, %99, %89, %74, %51
  %107 = load ptr, ptr %6, align 8, !tbaa !9
  call void @ossl_ml_kem_key_free(ptr noundef %107)
  store ptr null, ptr %3, align 8
  store i32 1, ptr %10, align 4
  br label %108

108:                                              ; preds = %106, %102
  call void @llvm.lifetime.end.p0(i64 8, ptr %9) #7
  call void @llvm.lifetime.end.p0(i64 64, ptr %8) #7
  call void @llvm.lifetime.end.p0(i64 8, ptr %7) #7
  call void @llvm.lifetime.end.p0(i64 8, ptr %6) #7
  %109 = load ptr, ptr %3, align 8
  ret ptr %109
}