; Function Attrs: nounwind uwtable
define internal ptr @ml_kem_load(ptr noundef captures(none) %0, i64 noundef %1) #0 {
  %3 = alloca [64 x i8], align 16
  call void @llvm.lifetime.start.p0(i64 64, ptr nonnull %3) #7
  %4 = tail call i32 @ossl_prov_is_running() #7
  %5 = icmp ne i32 %4, 0
  %6 = icmp eq i64 %1, 8
  %or.cond = and i1 %6, %5
  br i1 %or.cond, label %7, label %37

7:                                                ; preds = %2
  %8 = load ptr, ptr %0, align 8, !tbaa !44
  %9 = getelementptr inbounds nuw i8, ptr %8, i64 176
  %10 = load ptr, ptr %9, align 8, !tbaa !46
  store ptr null, ptr %9, align 8, !tbaa !46
  store ptr null, ptr %0, align 8, !tbaa !44
  %.not = icmp eq ptr %10, null
  br i1 %.not, label %.thread, label %11

11:                                               ; preds = %7
  %12 = call i32 @ossl_ml_kem_encode_seed(ptr noundef nonnull %3, i64 noundef 64, ptr noundef nonnull %8) #7
  %.not29 = icmp eq i32 %12, 0
  br i1 %.not29, label %20, label %13

13:                                               ; preds = %11
  %14 = getelementptr inbounds nuw i8, ptr %3, i64 32
  %15 = load ptr, ptr %8, align 8, !tbaa !14
  %16 = getelementptr inbounds nuw i8, ptr %15, i64 8
  %17 = load i64, ptr %16, align 8, !tbaa !31
  %18 = getelementptr inbounds nuw i8, ptr %10, i64 %17
  %19 = getelementptr inbounds i8, ptr %18, i64 -32
  %bcmp = call i32 @bcmp(ptr noundef nonnull dereferenceable(32) %14, ptr noundef nonnull dereferenceable(32) %19, i64 32)
  %.not30 = icmp eq i32 %bcmp, 0
  br i1 %.not30, label %20, label %.sink.split

20:                                               ; preds = %13, %11
  %21 = getelementptr inbounds nuw i8, ptr %8, i64 96
  %22 = load ptr, ptr %21, align 8, !tbaa !32
  %.not31 = icmp eq ptr %22, null
  br i1 %.not31, label %.thread39, label %25

.thread:                                          ; preds = %7
  %23 = getelementptr inbounds nuw i8, ptr %8, i64 96
  %24 = load ptr, ptr %23, align 8, !tbaa !32
  %.not3136 = icmp eq ptr %24, null
  br i1 %.not3136, label %.thread38, label %.thread37

25:                                               ; preds = %20
  %26 = getelementptr inbounds nuw i8, ptr %8, i64 104
  %27 = load i32, ptr %26, align 8, !tbaa !13
  %.not32 = icmp eq i32 %27, 0
  br i1 %.not32, label %.thread39, label %.thread37

.thread37:                                        ; preds = %.thread, %25
  %28 = call i32 @ossl_ml_kem_genkey(ptr noundef null, i64 noundef 0, ptr noundef nonnull %8) #7
  %.not35 = icmp eq i32 %28, 0
  br i1 %.not35, label %37, label %.thread38

.thread39:                                        ; preds = %20, %25
  %29 = load ptr, ptr %8, align 8, !tbaa !14
  %30 = getelementptr inbounds nuw i8, ptr %29, i64 8
  %31 = load i64, ptr %30, align 8, !tbaa !31
  %32 = call i32 @ossl_ml_kem_parse_private_key(ptr noundef nonnull %10, i64 noundef %31, ptr noundef nonnull %8) #7
  %.not33 = icmp eq i32 %32, 0
  br i1 %.not33, label %.sink.split, label %33

33:                                               ; preds = %.thread39
  %34 = call fastcc i32 @ml_kem_pairwise_test(ptr noundef nonnull %8)
  %.not34 = icmp eq i32 %34, 0
  br i1 %.not34, label %37, label %.thread38

.thread38:                                        ; preds = %.thread, %33, %.thread37
  call void @CRYPTO_free(ptr noundef %10, ptr noundef nonnull @.str.9, i32 noundef 482) #7
  br label %38

.sink.split:                                      ; preds = %.thread39, %13
  %.sink = phi i32 [ 461, %13 ], [ 474, %.thread39 ]
  %.str.14.sink = phi ptr [ @.str.13, %13 ], [ @.str.14, %.thread39 ]
  call void @ERR_new() #7
  call void @ERR_set_debug(ptr noundef nonnull @.str.9, i32 noundef %.sink, ptr noundef nonnull @__func__.ml_kem_load) #7
  %35 = load ptr, ptr %8, align 8, !tbaa !14
  %36 = load ptr, ptr %35, align 8, !tbaa !47
  call void (i32, i32, ptr, ...) @ERR_set_error(i32 noundef 57, i32 noundef 158, ptr noundef nonnull %.str.14.sink, ptr noundef %36) #7
  br label %37

37:                                               ; preds = %.sink.split, %2, %33, %.thread37
  %.027 = phi ptr [ %8, %.thread37 ], [ %8, %33 ], [ null, %2 ], [ %8, %.sink.split ]
  call void @ossl_ml_kem_key_free(ptr noundef %.027) #7
  br label %38

38:                                               ; preds = %37, %.thread38
  %.0 = phi ptr [ null, %37 ], [ %8, %.thread38 ]
  call void @llvm.lifetime.end.p0(i64 64, ptr nonnull %3) #7
  ret ptr %.0
}